; Function Attrs: mustprogress uwtable
define dso_local void @_ZN7doctest8toStringERKNS_6ApproxE(ptr dead_on_unwind noalias writable writeonly sret(%"class.doctest::String") align 8 captures(none) %0, ptr noundef nonnull readonly align 8 captures(none) dereferenceable(24) %1) local_unnamed_addr #8 personality ptr @__gxx_personality_v0 {
_ZN7doctest6StringC2EPKc.exit:
  %2 = alloca %"class.doctest::String", align 8
  %3 = alloca %"class.doctest::String", align 8
  %4 = alloca %"class.doctest::String", align 8
  %5 = alloca %"class.doctest::String", align 8
  call void @llvm.lifetime.start.p0(i64 24, ptr nonnull %2) #49
  call void @llvm.lifetime.start.p0(i64 24, ptr nonnull %3) #49
  %6 = getelementptr inbounds nuw i8, ptr %3, i64 8
  store i8 0, ptr %6, align 8, !tbaa !38
  %7 = getelementptr inbounds nuw i8, ptr %3, i64 23
  store i8 15, ptr %7, align 1, !tbaa !38
  store i64 2317234428338794561, ptr %3, align 8
  call void @llvm.lifetime.start.p0(i64 24, ptr nonnull %4) #49
  %8 = getelementptr inbounds nuw i8, ptr %1, i64 16
  %9 = load double, ptr %8, align 8, !tbaa !129
  %10 = tail call noundef ptr @_ZN7doctest6detail8tlssPushEv()
  %11 = tail call noundef nonnull align 8 dereferenceable(8) ptr @_ZNSo9_M_insertIdEERSoT_(ptr noundef nonnull align 8 dereferenceable(8) getelementptr inbounds nuw (i8, ptr @_ZN7doctest6detail5g_ossE, i64 40), double noundef %9)
  call void @_ZN7doctest6detail7tlssPopEv(ptr dead_on_unwind nonnull writable sret(%"class.doctest::String") align 8 %4)
  invoke void @_ZN7doctestplERKNS_6StringES2_(ptr dead_on_unwind nonnull writable sret(%"class.doctest::String") align 8 %2, ptr noundef nonnull align 8 dereferenceable(24) %3, ptr noundef nonnull align 8 dereferenceable(24) %4)
          to label %12 unwind label %29

12:                                               ; preds = %_ZN7doctest6StringC2EPKc.exit
  call void @llvm.lifetime.start.p0(i64 24, ptr nonnull %5) #49
  %13 = getelementptr inbounds nuw i8, ptr %5, i64 2
  store i8 0, ptr %13, align 2, !tbaa !38
  %14 = getelementptr inbounds nuw i8, ptr %5, i64 23
  store i8 21, ptr %14, align 1, !tbaa !38
  store i16 10528, ptr %5, align 8
  invoke void @_ZN7doctestplERKNS_6StringES2_(ptr dead_on_unwind writable sret(%"class.doctest::String") align 8 %0, ptr noundef nonnull align 8 dereferenceable(24) %2, ptr noundef nonnull align 8 dereferenceable(24) %5)
          to label %_ZN7doctest6StringD2Ev.exit unwind label %_ZN7doctest6StringD2Ev.exit17

_ZN7doctest6StringD2Ev.exit:                      ; preds = %12
  call void @llvm.lifetime.end.p0(i64 24, ptr nonnull %5) #49
  %15 = getelementptr inbounds nuw i8, ptr %2, i64 23
  %16 = load i8, ptr %15, align 1, !tbaa !38
  %17 = icmp sgt i8 %16, -1
  br i1 %17, label %_ZN7doctest6StringD2Ev.exit14, label %18

18:                                               ; preds = %_ZN7doctest6StringD2Ev.exit
  %19 = load ptr, ptr %2, align 8, !tbaa !38
  %20 = icmp eq ptr %19, null
  br i1 %20, label %_ZN7doctest6StringD2Ev.exit14, label %21

21:                                               ; preds = %18
  call void @_ZdaPv(ptr noundef nonnull %19) #48
  br label %_ZN7doctest6StringD2Ev.exit14

_ZN7doctest6StringD2Ev.exit14:                    ; preds = %_ZN7doctest6StringD2Ev.exit, %18, %21
  %22 = getelementptr inbounds nuw i8, ptr %4, i64 23
  %23 = load i8, ptr %22, align 1, !tbaa !38
  %24 = icmp sgt i8 %23, -1
  br i1 %24, label %_ZN7doctest6StringD2Ev.exit16, label %25

25:                                               ; preds = %_ZN7doctest6StringD2Ev.exit14
  %26 = load ptr, ptr %4, align 8, !tbaa !38
  %27 = icmp eq ptr %26, null
  br i1 %27, label %_ZN7doctest6StringD2Ev.exit16, label %28

28:                                               ; preds = %25
  call void @_ZdaPv(ptr noundef nonnull %26) #48
  br label %_ZN7doctest6StringD2Ev.exit16

_ZN7doctest6StringD2Ev.exit16:                    ; preds = %28, %25, %_ZN7doctest6StringD2Ev.exit14
  call void @llvm.lifetime.end.p0(i64 24, ptr nonnull %4) #49
  call void @llvm.lifetime.end.p0(i64 24, ptr nonnull %3) #49
  call void @llvm.lifetime.end.p0(i64 24, ptr nonnull %2) #49
  ret void

29:                                               ; preds = %_ZN7doctest6StringC2EPKc.exit
  %30 = landingpad { ptr, i32 }
          cleanup
  br label %_ZN7doctest6StringD2Ev.exit18

_ZN7doctest6StringD2Ev.exit17:                    ; preds = %12
  %31 = landingpad { ptr, i32 }
          cleanup
  call void @llvm.lifetime.end.p0(i64 24, ptr nonnull %5) #49
  %32 = getelementptr inbounds nuw i8, ptr %2, i64 23
  %33 = load i8, ptr %32, align 1, !tbaa !38
  %34 = icmp sgt i8 %33, -1
  br i1 %34, label %_ZN7doctest6StringD2Ev.exit18, label %35

35:                                               ; preds = %_ZN7doctest6StringD2Ev.exit17
  %36 = load ptr, ptr %2, align 8, !tbaa !38
  %37 = icmp eq ptr %36, null
  br i1 %37, label %_ZN7doctest6StringD2Ev.exit18, label %38

38:                                               ; preds = %35
  call void @_ZdaPv(ptr noundef nonnull %36) #48
  br label %_ZN7doctest6StringD2Ev.exit18

_ZN7doctest6StringD2Ev.exit18:                    ; preds = %38, %35, %_ZN7doctest6StringD2Ev.exit17, %29
  %.pn.pn = phi { ptr, i32 } [ %30, %29 ], [ %31, %_ZN7doctest6StringD2Ev.exit17 ], [ %31, %35 ], [ %31, %38 ]
  %39 = getelementptr inbounds nuw i8, ptr %4, i64 23
  %40 = load i8, ptr %39, align 1, !tbaa !38
  %41 = icmp sgt i8 %40, -1
  br i1 %41, label %_ZN7doctest6StringD2Ev.exit20, label %42

42:                                               ; preds = %_ZN7doctest6StringD2Ev.exit18
  %43 = load ptr, ptr %4, align 8, !tbaa !38
  %44 = icmp eq ptr %43, null
  br i1 %44, label %_ZN7doctest6StringD2Ev.exit20, label %45

45:                                               ; preds = %42
  call void @_ZdaPv(ptr noundef nonnull %43) #48
  br label %_ZN7doctest6StringD2Ev.exit20

_ZN7doctest6StringD2Ev.exit20:                    ; preds = %_ZN7doctest6StringD2Ev.exit18, %42, %45
  call void @llvm.lifetime.end.p0(i64 24, ptr nonnull %4) #49
  call void @llvm.lifetime.end.p0(i64 24, ptr nonnull %3) #49
  call void @llvm.lifetime.end.p0(i64 24, ptr nonnull %2) #49
  resume { ptr, i32 } %.pn.pn
}